; Function Attrs: nounwind uwtable
define void @Ssc_ManStop(ptr noundef %0) local_unnamed_addr #2 {
  %2 = getelementptr inbounds nuw i8, ptr %0, i64 72
  %3 = load ptr, ptr %2, align 8, !tbaa !11
  %4 = icmp eq ptr %3, null
  br i1 %4, label %Vec_IntFreeP.exit, label %5

5:                                                ; preds = %1
  %6 = getelementptr inbounds nuw i8, ptr %3, i64 8
  %7 = load ptr, ptr %6, align 8, !tbaa !14
  %.not.i = icmp eq ptr %7, null
  br i1 %.not.i, label %10, label %.thread.i

.thread.i:                                        ; preds = %5
  tail call void @free(ptr noundef nonnull %7) #19
  %8 = load ptr, ptr %2, align 8, !tbaa !11
  %9 = getelementptr inbounds nuw i8, ptr %8, i64 8
  store ptr null, ptr %9, align 8, !tbaa !14
  br label %10

10:                                               ; preds = %.thread.i, %5
  %11 = phi ptr [ %8, %.thread.i ], [ %3, %5 ]
  tail call void @free(ptr noundef nonnull %11) #19
  store ptr null, ptr %2, align 8, !tbaa !11
  br label %Vec_IntFreeP.exit

Vec_IntFreeP.exit:                                ; preds = %1, %10
  %12 = getelementptr inbounds nuw i8, ptr %0, i64 80
  %13 = load ptr, ptr %12, align 8, !tbaa !11
  %14 = icmp eq ptr %13, null
  br i1 %14, label %Vec_IntFreeP.exit16, label %15

15:                                               ; preds = %Vec_IntFreeP.exit
  %16 = getelementptr inbounds nuw i8, ptr %13, i64 8
  %17 = load ptr, ptr %16, align 8, !tbaa !14
  %.not.i14 = icmp eq ptr %17, null
  br i1 %.not.i14, label %20, label %.thread.i15

.thread.i15:                                      ; preds = %15
  tail call void @free(ptr noundef nonnull %17) #19
  %18 = load ptr, ptr %12, align 8, !tbaa !11
  %19 = getelementptr inbounds nuw i8, ptr %18, i64 8
  store ptr null, ptr %19, align 8, !tbaa !14
  br label %20

20:                                               ; preds = %.thread.i15, %15
  %21 = phi ptr [ %18, %.thread.i15 ], [ %13, %15 ]
  tail call void @free(ptr noundef nonnull %21) #19
  store ptr null, ptr %12, align 8, !tbaa !11
  br label %Vec_IntFreeP.exit16

Vec_IntFreeP.exit16:                              ; preds = %Vec_IntFreeP.exit, %20
  %22 = getelementptr inbounds nuw i8, ptr %0, i64 88
  %23 = load ptr, ptr %22, align 8, !tbaa !11
  %24 = icmp eq ptr %23, null
  br i1 %24, label %Vec_IntFreeP.exit19, label %25

25:                                               ; preds = %Vec_IntFreeP.exit16
  %26 = getelementptr inbounds nuw i8, ptr %23, i64 8
  %27 = load ptr, ptr %26, align 8, !tbaa !14
  %.not.i17 = icmp eq ptr %27, null
  br i1 %.not.i17, label %30, label %.thread.i18

.thread.i18:                                      ; preds = %25
  tail call void @free(ptr noundef nonnull %27) #19
  %28 = load ptr, ptr %22, align 8, !tbaa !11
  %29 = getelementptr inbounds nuw i8, ptr %28, i64 8
  store ptr null, ptr %29, align 8, !tbaa !14
  br label %30

30:                                               ; preds = %.thread.i18, %25
  %31 = phi ptr [ %28, %.thread.i18 ], [ %23, %25 ]
  tail call void @free(ptr noundef nonnull %31) #19
  store ptr null, ptr %22, align 8, !tbaa !11
  br label %Vec_IntFreeP.exit19

Vec_IntFreeP.exit19:                              ; preds = %Vec_IntFreeP.exit16, %30
  %32 = getelementptr inbounds nuw i8, ptr %0, i64 96
  %33 = load ptr, ptr %32, align 8, !tbaa !11
  %34 = icmp eq ptr %33, null
  br i1 %34, label %Vec_IntFreeP.exit22, label %35

35:                                               ; preds = %Vec_IntFreeP.exit19
  %36 = getelementptr inbounds nuw i8, ptr %33, i64 8
  %37 = load ptr, ptr %36, align 8, !tbaa !14
  %.not.i20 = icmp eq ptr %37, null
  br i1 %.not.i20, label %40, label %.thread.i21

.thread.i21:                                      ; preds = %35
  tail call void @free(ptr noundef nonnull %37) #19
  %38 = load ptr, ptr %32, align 8, !tbaa !11
  %39 = getelementptr inbounds nuw i8, ptr %38, i64 8
  store ptr null, ptr %39, align 8, !tbaa !14
  br label %40

40:                                               ; preds = %.thread.i21, %35
  %41 = phi ptr [ %38, %.thread.i21 ], [ %33, %35 ]
  tail call void @free(ptr noundef nonnull %41) #19
  store ptr null, ptr %32, align 8, !tbaa !11
  br label %Vec_IntFreeP.exit22

Vec_IntFreeP.exit22:                              ; preds = %Vec_IntFreeP.exit19, %40
  %42 = getelementptr inbounds nuw i8, ptr %0, i64 56
  %43 = load ptr, ptr %42, align 8, !tbaa !11
  %44 = icmp eq ptr %43, null
  br i1 %44, label %Vec_IntFreeP.exit25, label %45

45:                                               ; preds = %Vec_IntFreeP.exit22
  %46 = getelementptr inbounds nuw i8, ptr %43, i64 8
  %47 = load ptr, ptr %46, align 8, !tbaa !14
  %.not.i23 = icmp eq ptr %47, null
  br i1 %.not.i23, label %50, label %.thread.i24

.thread.i24:                                      ; preds = %45
  tail call void @free(ptr noundef nonnull %47) #19
  %48 = load ptr, ptr %42, align 8, !tbaa !11
  %49 = getelementptr inbounds nuw i8, ptr %48, i64 8
  store ptr null, ptr %49, align 8, !tbaa !14
  br label %50

50:                                               ; preds = %.thread.i24, %45
  %51 = phi ptr [ %48, %.thread.i24 ], [ %43, %45 ]
  tail call void @free(ptr noundef nonnull %51) #19
  store ptr null, ptr %42, align 8, !tbaa !11
  br label %Vec_IntFreeP.exit25

Vec_IntFreeP.exit25:                              ; preds = %Vec_IntFreeP.exit22, %50
  %52 = getelementptr inbounds nuw i8, ptr %0, i64 40
  %53 = load ptr, ptr %52, align 8, !tbaa !11
  %54 = icmp eq ptr %53, null
  br i1 %54, label %Vec_IntFreeP.exit28, label %55

55:                                               ; preds = %Vec_IntFreeP.exit25
  %56 = getelementptr inbounds nuw i8, ptr %53, i64 8
  %57 = load ptr, ptr %56, align 8, !tbaa !14
  %.not.i26 = icmp eq ptr %57, null
  br i1 %.not.i26, label %60, label %.thread.i27

.thread.i27:                                      ; preds = %55
  tail call void @free(ptr noundef nonnull %57) #19
  %58 = load ptr, ptr %52, align 8, !tbaa !11
  %59 = getelementptr inbounds nuw i8, ptr %58, i64 8
  store ptr null, ptr %59, align 8, !tbaa !14
  br label %60

60:                                               ; preds = %.thread.i27, %55
  %61 = phi ptr [ %58, %.thread.i27 ], [ %53, %55 ]
  tail call void @free(ptr noundef nonnull %61) #19
  store ptr null, ptr %52, align 8, !tbaa !11
  br label %Vec_IntFreeP.exit28

Vec_IntFreeP.exit28:                              ; preds = %Vec_IntFreeP.exit25, %60
  %62 = getelementptr inbounds nuw i8, ptr %0, i64 48
  %63 = load ptr, ptr %62, align 8, !tbaa !11
  %64 = icmp eq ptr %63, null
  br i1 %64, label %Vec_IntFreeP.exit31, label %65

65:                                               ; preds = %Vec_IntFreeP.exit28
  %66 = getelementptr inbounds nuw i8, ptr %63, i64 8
  %67 = load ptr, ptr %66, align 8, !tbaa !14
  %.not.i29 = icmp eq ptr %67, null
  br i1 %.not.i29, label %70, label %.thread.i30

.thread.i30:                                      ; preds = %65
  tail call void @free(ptr noundef nonnull %67) #19
  %68 = load ptr, ptr %62, align 8, !tbaa !11
  %69 = getelementptr inbounds nuw i8, ptr %68, i64 8
  store ptr null, ptr %69, align 8, !tbaa !14
  br label %70

70:                                               ; preds = %.thread.i30, %65
  %71 = phi ptr [ %68, %.thread.i30 ], [ %63, %65 ]
  tail call void @free(ptr noundef nonnull %71) #19
  store ptr null, ptr %62, align 8, !tbaa !11
  br label %Vec_IntFreeP.exit31

Vec_IntFreeP.exit31:                              ; preds = %Vec_IntFreeP.exit28, %70
  %72 = getelementptr inbounds nuw i8, ptr %0, i64 32
  %73 = load ptr, ptr %72, align 8, !tbaa !17
  %.not = icmp eq ptr %73, null
  br i1 %.not, label %75, label %74

74:                                               ; preds = %Vec_IntFreeP.exit31
  tail call void @sat_solver_delete(ptr noundef nonnull %73) #19
  br label %75

75:                                               ; preds = %74, %Vec_IntFreeP.exit31
  %76 = getelementptr inbounds nuw i8, ptr %0, i64 24
  tail call void @Gia_ManStopP(ptr noundef nonnull %76) #19
  tail call void @free(ptr noundef nonnull %0) #19
  ret void
}